target datalayout = "e-m:e-p270:32:32-p271:32:32-p272:64:64-i64:64-i128:128-f80:128-n8:16:32:64-S128"
target triple = "x86_64-pc-linux-gnu"

%struct.QemuMutex = type { %union.pthread_mutex_t, i8 }
%union.pthread_mutex_t = type { %struct.__pthread_mutex_s }
%struct.__pthread_mutex_s = type { i32, i32, i32, i32, i32, i16, i16, %struct.__pthread_internal_list }
%struct.__pthread_internal_list = type { ptr, ptr }
%struct.QEnumLookup = type { ptr, ptr, i32 }
%struct.Job = type { ptr, ptr, ptr, i8, i8, ptr, ptr, %struct.ProgressMeter, ptr, i32, i32, %struct.QEMUTimer, i32, i8, i8, i8, i8, i8, i8, i32, ptr, %struct.NotifierList, %struct.NotifierList, %struct.NotifierList, %struct.NotifierList, %struct.NotifierList, %struct.anon.1, ptr, %struct.anon.2 }
%struct.ProgressMeter = type { i64, i64, %struct.QemuMutex }
%struct.QEMUTimer = type { i64, ptr, ptr, ptr, ptr, i32, i32 }
%struct.NotifierList = type { %struct.anon.0 }
%struct.anon.0 = type { ptr }
%struct.anon.1 = type { ptr, ptr }
%struct.anon.2 = type { ptr, ptr }
%struct.timeval = type { i64, i64 }

@.str = private unnamed_addr constant [14 x i8] c"../qemu/job.c\00", align 1
@JobStatus_lookup = external constant %struct.QEnumLookup, align 8
@.str.2 = private unnamed_addr constant [8 x i8] c"allowed\00", align 1
@trace_events_enabled_count = external global i32, align 4
@message_with_timestamp = external global i8, align 1
@qemu_loglevel = external global i32, align 4
@.str.32 = private unnamed_addr constant [32 x i8] c"s1 >= 0 && s1 < JOB_STATUS__MAX\00", align 1
@__PRETTY_FUNCTION__.job_state_transition_locked = private unnamed_addr constant [51 x i8] c"void job_state_transition_locked(Job *, JobStatus)\00", align 1
@.str.33 = private unnamed_addr constant [11 x i8] c"disallowed\00", align 1
@.str.34 = private unnamed_addr constant [15 x i8] c"JobSTT[s0][s1]\00", align 1
@_TRACE_JOB_STATE_TRANSITION_DSTATE = external global i16, align 2
@.str.35 = private unnamed_addr constant [87 x i8] c"%d@%zu.%06zu:job_state_transition job %p (ret: %d) attempting %s transition (%s-->%s)\0A\00", align 1
@.str.36 = private unnamed_addr constant [74 x i8] c"job_state_transition job %p (ret: %d) attempting %s transition (%s-->%s)\0A\00", align 1

; Function Attrs: inlinehint nounwind sspstrong uwtable
define internal zeroext i1 @qemu_loglevel_mask(i32 noundef %0) #7 {
  %2 = alloca i32, align 4
  store i32 %0, ptr %2, align 4
  %3 = load i32, ptr @qemu_loglevel, align 4
  %4 = load i32, ptr %2, align 4
  %5 = and i32 %3, %4
  %6 = icmp ne i32 %5, 0
  ret i1 %6
}

; Function Attrs: inlinehint nounwind sspstrong uwtable
define internal void @_nocheck__trace_job_state_transition(ptr noundef %0, i32 noundef %1, ptr noundef %2, ptr noundef %3, ptr noundef %4) #7 {
  %6 = alloca ptr, align 8
  %7 = alloca i32, align 4
  %8 = alloca ptr, align 8
  %9 = alloca ptr, align 8
  %10 = alloca ptr, align 8
  %11 = alloca %struct.timeval, align 8
  store ptr %0, ptr %6, align 8
  store i32 %1, ptr %7, align 4
  store ptr %2, ptr %8, align 8
  store ptr %3, ptr %9, align 8
  store ptr %4, ptr %10, align 8
  %12 = load i32, ptr @trace_events_enabled_count, align 4
  %13 = icmp ne i32 %12, 0
  %14 = xor i1 %13, true
  %15 = xor i1 %14, true
  %16 = zext i1 %15 to i32
  %17 = sext i32 %16 to i64
  %18 = call i64 @llvm.expect.i64(i64 %17, i64 0)
  %19 = icmp ne i64 %18, 0
  br i1 %19, label %20, label %48

20:                                               ; preds = %5
  %21 = load i16, ptr @_TRACE_JOB_STATE_TRANSITION_DSTATE, align 2
  %22 = zext i16 %21 to i32
  %23 = icmp ne i32 %22, 0
  br i1 %23, label %24, label %48

24:                                               ; preds = %20
  %25 = call zeroext i1 @qemu_loglevel_mask(i32 noundef 32768)
  br i1 %25, label %26, label %48

26:                                               ; preds = %24
  %27 = load i8, ptr @message_with_timestamp, align 1, !range !7, !noundef !8
  %28 = trunc i8 %27 to i1
  br i1 %28, label %29, label %41

29:                                               ; preds = %26
  call void @llvm.lifetime.start.p0(i64 16, ptr %11) #16
  call void @llvm.memset.p0.i64(ptr align 8 %11, i8 0, i64 16, i1 false), !annotation !5
  %30 = call i32 @gettimeofday(ptr noundef %11, ptr noundef null) #16
  %31 = call i32 @qemu_get_thread_id()
  %32 = getelementptr inbounds nuw %struct.timeval, ptr %11, i32 0, i32 0
  %33 = load i64, ptr %32, align 8
  %34 = getelementptr inbounds nuw %struct.timeval, ptr %11, i32 0, i32 1
  %35 = load i64, ptr %34, align 8
  %36 = load ptr, ptr %6, align 8
  %37 = load i32, ptr %7, align 4
  %38 = load ptr, ptr %8, align 8
  %39 = load ptr, ptr %9, align 8
  %40 = load ptr, ptr %10, align 8
  call void (ptr, ...) @qemu_log(ptr noundef @.str.35, i32 noundef %31, i64 noundef %33, i64 noundef %35, ptr noundef %36, i32 noundef %37, ptr noundef %38, ptr noundef %39, ptr noundef %40)
  call void @llvm.lifetime.end.p0(i64 16, ptr %11) #16
  br label %47

41:                                               ; preds = %26
  %42 = load ptr, ptr %6, align 8
  %43 = load i32, ptr %7, align 4
  %44 = load ptr, ptr %8, align 8
  %45 = load ptr, ptr %9, align 8
  %46 = load ptr, ptr %10, align 8
  call void (ptr, ...) @qemu_log(ptr noundef @.str.36, ptr noundef %42, i32 noundef %43, ptr noundef %44, ptr noundef %45, ptr noundef %46)
  br label %47

47:                                               ; preds = %41, %29
  br label %48

48:                                               ; preds = %47, %24, %20, %5
  ret void
}

; Function Attrs: nounwind sspstrong uwtable
define dso_local zeroext i1 @job_is_internal(ptr noundef %0) #0 {
  %2 = alloca ptr, align 8
  store ptr %0, ptr %2, align 8
  %3 = load ptr, ptr %2, align 8
  %4 = getelementptr inbounds nuw %struct.Job, ptr %3, i32 0, i32 0
  %5 = load ptr, ptr %4, align 8
  %6 = icmp eq ptr %5, null
  ret i1 %6
}

; Function Attrs: inlinehint nounwind sspstrong uwtable
define internal void @trace_job_state_transition(ptr noundef %0, i32 noundef %1, ptr noundef %2, ptr noundef %3, ptr noundef %4) #7 {
  %6 = alloca ptr, align 8
  %7 = alloca i32, align 4
  %8 = alloca ptr, align 8
  %9 = alloca ptr, align 8
  %10 = alloca ptr, align 8
  store ptr %0, ptr %6, align 8
  store i32 %1, ptr %7, align 4
  store ptr %2, ptr %8, align 8
  store ptr %3, ptr %9, align 8
  store ptr %4, ptr %10, align 8
  %11 = load ptr, ptr %6, align 8
  %12 = load i32, ptr %7, align 4
  %13 = load ptr, ptr %8, align 8
  %14 = load ptr, ptr %9, align 8
  %15 = load ptr, ptr %10, align 8
  call void @_nocheck__trace_job_state_transition(ptr noundef %11, i32 noundef %12, ptr noundef %13, ptr noundef %14, ptr noundef %15)
  ret void
}

; Function Attrs: nounwind sspstrong uwtable
define internal void @job_state_transition_locked(ptr noundef %0, i32 noundef %1) #0 {
  %3 = alloca ptr, align 8
  %4 = alloca i32, align 4
  %5 = alloca i32, align 4
  store ptr %0, ptr %3, align 8
  store i32 %1, ptr %4, align 4
  call void @llvm.lifetime.start.p0(i64 4, ptr %5) #16
  %6 = load ptr, ptr %3, align 8
  %7 = getelementptr inbounds nuw %struct.Job, ptr %6, i32 0, i32 10
  %8 = load i32, ptr %7, align 4
  store i32 %8, ptr %5, align 4
  %9 = load i32, ptr %4, align 4
  %10 = icmp uge i32 %9, 0
  br i1 %10, label %11, label %15

11:                                               ; preds = %2
  %12 = load i32, ptr %4, align 4
  %13 = icmp ult i32 %12, 11
  br i1 %13, label %14, label %15

14:                                               ; preds = %11
  br label %16

15:                                               ; preds = %11, %2
  call void @__assert_fail(ptr noundef @.str.32, ptr noundef @.str, i32 noundef 211, ptr noundef @__PRETTY_FUNCTION__.job_state_transition_locked) #20
  unreachable

16:                                               ; preds = %14
  %17 = load ptr, ptr %3, align 8
  %18 = load ptr, ptr %3, align 8
  %19 = getelementptr inbounds nuw %struct.Job, ptr %18, i32 0, i32 19
  %20 = load i32, ptr %19, align 4
  %21 = load i32, ptr %5, align 4
  %22 = zext i32 %21 to i64
  %23 = getelementptr inbounds nuw [11 x [11 x i8]], ptr @JobSTT, i64 0, i64 %22
  %24 = load i32, ptr %4, align 4
  %25 = zext i32 %24 to i64
  %26 = getelementptr inbounds nuw [11 x i8], ptr %23, i64 0, i64 %25
  %27 = load i8, ptr %26, align 1, !range !7, !noundef !8
  %28 = trunc i8 %27 to i1
  %29 = select i1 %28, ptr @.str.2, ptr @.str.33
  %30 = load i32, ptr %5, align 4
  %31 = call ptr @qapi_enum_lookup(ptr noundef @JobStatus_lookup, i32 noundef %30)
  %32 = load i32, ptr %4, align 4
  %33 = call ptr @qapi_enum_lookup(ptr noundef @JobStatus_lookup, i32 noundef %32)
  call void @trace_job_state_transition(ptr noundef %17, i32 noundef %20, ptr noundef %29, ptr noundef %31, ptr noundef %33)
  %34 = load i32, ptr %5, align 4
  %35 = zext i32 %34 to i64
  %36 = getelementptr inbounds nuw [11 x [11 x i8]], ptr @JobSTT, i64 0, i64 %35
  %37 = load i32, ptr %4, align 4
  %38 = zext i32 %37 to i64
  %39 = getelementptr inbounds nuw [11 x i8], ptr %36, i64 0, i64 %38
  %40 = load i8, ptr %39, align 1, !range !7, !noundef !8
  %41 = trunc i8 %40 to i1
  br i1 %41, label %42, label %43

42:                                               ; preds = %16
  br label %44

43:                                               ; preds = %16
  call void @__assert_fail(ptr noundef @.str.34, ptr noundef @.str, i32 noundef 215, ptr noundef @__PRETTY_FUNCTION__.job_state_transition_locked) #20
  unreachable

44:                                               ; preds = %42
  %45 = load i32, ptr %4, align 4
  %46 = load ptr, ptr %3, align 8
  %47 = getelementptr inbounds nuw %struct.Job, ptr %46, i32 0, i32 10
  store i32 %45, ptr %47, align 4
  %48 = load ptr, ptr %3, align 8
  %49 = call zeroext i1 @job_is_internal(ptr noundef %48)
  br i1 %49, label %61, label %50

50:                                               ; preds = %44
  %51 = load i32, ptr %4, align 4
  %52 = load i32, ptr %5, align 4
  %53 = icmp ne i32 %51, %52
  br i1 %53, label %54, label %61

54:                                               ; preds = %50
  %55 = load ptr, ptr %3, align 8
  %56 = getelementptr inbounds nuw %struct.Job, ptr %55, i32 0, i32 0
  %57 = load ptr, ptr %56, align 8
  %58 = load ptr, ptr %3, align 8
  %59 = getelementptr inbounds nuw %struct.Job, ptr %58, i32 0, i32 10
  %60 = load i32, ptr %59, align 4
  call void @qapi_event_send_job_status_change(ptr noundef %57, i32 noundef %60)
  br label %61

61:                                               ; preds = %54, %50, %44
  call void @llvm.lifetime.end.p0(i64 4, ptr %5) #16
  ret void
}