; Function Attrs: nounwind sspstrong uwtable
define internal fastcc void @job_state_transition_locked(ptr noundef %0, i32 noundef %1) unnamed_addr #0 {
  %3 = alloca %struct.timeval, align 8
  %4 = getelementptr inbounds nuw i8, ptr %0, i64 124
  %5 = load i32, ptr %4, align 4
  %6 = icmp ult i32 %1, 11
  br i1 %6, label %8, label %7

7:                                                ; preds = %2
  tail call void @__assert_fail(ptr noundef nonnull @.str.32, ptr noundef nonnull @.str, i32 noundef 211, ptr noundef nonnull @__PRETTY_FUNCTION__.job_state_transition_locked) #17
  unreachable

8:                                                ; preds = %2
  %9 = getelementptr inbounds nuw i8, ptr %0, i64 188
  %10 = load i32, ptr %9, align 4
  %11 = zext i32 %5 to i64
  %12 = zext nneg i32 %1 to i64
  %13 = getelementptr inbounds nuw [11 x [11 x i8]], ptr @JobSTT, i64 0, i64 %11, i64 %12
  %14 = load i8, ptr %13, align 1, !range !4, !noundef !5
  %15 = trunc nuw i8 %14 to i1
  %16 = select i1 %15, ptr @.str.2, ptr @.str.33
  %17 = tail call ptr @qapi_enum_lookup(ptr noundef nonnull @JobStatus_lookup, i32 noundef %5) #15
  %18 = tail call ptr @qapi_enum_lookup(ptr noundef nonnull @JobStatus_lookup, i32 noundef %1) #15
  %19 = load i32, ptr @trace_events_enabled_count, align 4
  %.not.i.i = icmp eq i32 %19, 0
  br i1 %.not.i.i, label %trace_job_state_transition.exit, label %20, !prof !6

20:                                               ; preds = %8
  %21 = load i16, ptr @_TRACE_JOB_STATE_TRANSITION_DSTATE, align 2
  %.not9.i.i = icmp eq i16 %21, 0
  br i1 %.not9.i.i, label %trace_job_state_transition.exit, label %22

22:                                               ; preds = %20
  %23 = load i32, ptr @qemu_loglevel, align 4
  %24 = and i32 %23, 32768
  %.not10.i.i = icmp eq i32 %24, 0
  br i1 %.not10.i.i, label %trace_job_state_transition.exit, label %25

25:                                               ; preds = %22
  %26 = load i8, ptr @message_with_timestamp, align 1, !range !4, !noundef !5
  %27 = trunc nuw i8 %26 to i1
  br i1 %27, label %28, label %34

28:                                               ; preds = %25
  call void @llvm.lifetime.start.p0(i64 16, ptr nonnull %3) #15
  call void @llvm.memset.p0.i64(ptr noundef nonnull align 8 dereferenceable(16) %3, i8 0, i64 16, i1 false), !annotation !7
  %29 = call i32 @gettimeofday(ptr noundef nonnull %3, ptr noundef null) #15
  %30 = tail call i32 @qemu_get_thread_id() #15
  %31 = load i64, ptr %3, align 8
  %32 = getelementptr inbounds nuw i8, ptr %3, i64 8
  %33 = load i64, ptr %32, align 8
  tail call void (ptr, ...) @qemu_log(ptr noundef nonnull @.str.35, i32 noundef %30, i64 noundef %31, i64 noundef %33, ptr noundef nonnull %0, i32 noundef %10, ptr noundef nonnull %16, ptr noundef %17, ptr noundef %18) #15
  call void @llvm.lifetime.end.p0(i64 16, ptr nonnull %3) #15
  br label %trace_job_state_transition.exit

34:                                               ; preds = %25
  tail call void (ptr, ...) @qemu_log(ptr noundef nonnull @.str.36, ptr noundef nonnull %0, i32 noundef %10, ptr noundef nonnull %16, ptr noundef %17, ptr noundef %18) #15
  br label %trace_job_state_transition.exit

trace_job_state_transition.exit:                  ; preds = %8, %20, %22, %28, %34
  %35 = load i8, ptr %13, align 1, !range !4, !noundef !5
  %36 = trunc nuw i8 %35 to i1
  br i1 %36, label %38, label %37

37:                                               ; preds = %trace_job_state_transition.exit
  tail call void @__assert_fail(ptr noundef nonnull @.str.34, ptr noundef nonnull @.str, i32 noundef 215, ptr noundef nonnull @__PRETTY_FUNCTION__.job_state_transition_locked) #17
  unreachable

38:                                               ; preds = %trace_job_state_transition.exit
  store i32 %1, ptr %4, align 4
  %39 = load ptr, ptr %0, align 8
  %40 = icmp eq ptr %39, null
  %.not = icmp eq i32 %1, %5
  %or.cond = select i1 %40, i1 true, i1 %.not
  br i1 %or.cond, label %42, label %41

41:                                               ; preds = %38
  tail call void @qapi_event_send_job_status_change(ptr noundef nonnull %39, i32 noundef %1) #15
  br label %42

42:                                               ; preds = %41, %38
  ret void
}